(i__main__
studentcourse
p0
(dp1
S'course2'
p2
S'chem'
p3
sS'course1'
p4
S'maths'
p5
sS'name'
p6
S'ben'
p7
sS'year'
p8
S'senior'
p9
sb.(i__main__
studentcourse
p0
(dp1
S'course2'
p2
S'bio'
p3
sS'course1'
p4
S'geo'
p5
sS'name'
p6
S'chu'
p7
sS'year'
p8
S'junior'
p9
sb.